target datalayout = "e-m:e-p270:32:32-p271:32:32-p272:64:64-i64:64-i128:128-f80:128-n8:16:32:64-S128"
target triple = "x86_64-pc-linux-gnu"

%struct.RangeBound = type { i64, i8, i8, i8 }
%struct.FunctionCallInfoBaseData = type { ptr, ptr, ptr, i32, i8, i16, [0 x %struct.NullableDatum] }
%struct.NullableDatum = type { i64, i8 }
%struct.FmgrInfo = type { ptr, i32, i16, i8, i8, i8, ptr, ptr, ptr }
%struct.TypeCacheEntry = type { i32, i32, i16, i8, i8, i8, i8, i32, i32, i32, i32, i32, i32, i32, i32, i32, i32, i32, i32, i32, i32, %struct.FmgrInfo, %struct.FmgrInfo, %struct.FmgrInfo, %struct.FmgrInfo, ptr, i64, ptr, i32, i32, %struct.FmgrInfo, %struct.FmgrInfo, %struct.FmgrInfo, ptr, i32, i32, ptr, i32, ptr, ptr }
%struct.RangeType = type { i32, i32 }

@.str.1 = private unnamed_addr constant [13 x i8] c"rangetypes.c\00", align 1
@.str.12 = private unnamed_addr constant [28 x i8] c"type %u is not a range type\00", align 1
@__func__.range_get_typcache = private unnamed_addr constant [19 x i8] c"range_get_typcache\00", align 1

; Function Attrs: inlinehint nounwind uwtable
define internal ptr @DatumGetPointer(i64 noundef %0) #2 {
  %2 = alloca i64, align 8
  store i64 %0, ptr %2, align 8
  %3 = load i64, ptr %2, align 8
  %4 = inttoptr i64 %3 to ptr
  ret ptr %4
}

; Function Attrs: nounwind uwtable
define dso_local ptr @range_get_typcache(ptr noundef %0, i32 noundef %1) #0 {
  %3 = alloca ptr, align 8
  %4 = alloca i32, align 4
  %5 = alloca ptr, align 8
  store ptr %0, ptr %3, align 8
  store i32 %1, ptr %4, align 4
  call void @llvm.lifetime.start.p0(i64 8, ptr %5) #10
  %6 = load ptr, ptr %3, align 8
  %7 = getelementptr inbounds nuw %struct.FunctionCallInfoBaseData, ptr %6, i32 0, i32 0
  %8 = load ptr, ptr %7, align 8
  %9 = getelementptr inbounds nuw %struct.FmgrInfo, ptr %8, i32 0, i32 6
  %10 = load ptr, ptr %9, align 8
  store ptr %10, ptr %5, align 8
  %11 = load ptr, ptr %5, align 8
  %12 = icmp eq ptr %11, null
  br i1 %12, label %19, label %13

13:                                               ; preds = %2
  %14 = load ptr, ptr %5, align 8
  %15 = getelementptr inbounds nuw %struct.TypeCacheEntry, ptr %14, i32 0, i32 0
  %16 = load i32, ptr %15, align 8
  %17 = load i32, ptr %4, align 4
  %18 = icmp ne i32 %16, %17
  br i1 %18, label %19, label %44

19:                                               ; preds = %13, %2
  %20 = load i32, ptr %4, align 4
  %21 = call ptr @lookup_type_cache(i32 noundef %20, i32 noundef 2048)
  store ptr %21, ptr %5, align 8
  %22 = load ptr, ptr %5, align 8
  %23 = getelementptr inbounds nuw %struct.TypeCacheEntry, ptr %22, i32 0, i32 27
  %24 = load ptr, ptr %23, align 8
  %25 = icmp eq ptr %24, null
  br i1 %25, label %26, label %38

26:                                               ; preds = %19
  br label %27

27:                                               ; preds = %26
  br i1 true, label %28, label %30

28:                                               ; preds = %27
  %29 = call zeroext i1 @errstart_cold(i32 noundef 21, ptr noundef null) #11
  br i1 %29, label %32, label %35

30:                                               ; preds = %27
  %31 = call zeroext i1 @errstart(i32 noundef 21, ptr noundef null)
  br i1 %31, label %32, label %35

32:                                               ; preds = %30, %28
  %33 = load i32, ptr %4, align 4
  %34 = call i32 (ptr, ...) @errmsg_internal(ptr noundef @.str.12, i32 noundef %33)
  call void @errfinish(ptr noundef @.str.1, i32 noundef 1712, ptr noundef @__func__.range_get_typcache)
  br label %35

35:                                               ; preds = %32, %30, %28
  unreachable

36:                                               ; No predecessors!
  br label %37

37:                                               ; preds = %36
  br label %38

38:                                               ; preds = %37, %19
  %39 = load ptr, ptr %5, align 8
  %40 = load ptr, ptr %3, align 8
  %41 = getelementptr inbounds nuw %struct.FunctionCallInfoBaseData, ptr %40, i32 0, i32 0
  %42 = load ptr, ptr %41, align 8
  %43 = getelementptr inbounds nuw %struct.FmgrInfo, ptr %42, i32 0, i32 6
  store ptr %39, ptr %43, align 8
  br label %44

44:                                               ; preds = %38, %13
  %45 = load ptr, ptr %5, align 8
  call void @llvm.lifetime.end.p0(i64 8, ptr %5) #10
  ret ptr %45
}

; Function Attrs: inlinehint nounwind uwtable
define internal ptr @DatumGetRangeTypeP(i64 noundef %0) #2 {
  %2 = alloca i64, align 8
  store i64 %0, ptr %2, align 8
  %3 = load i64, ptr %2, align 8
  %4 = call ptr @DatumGetPointer(i64 noundef %3)
  %5 = call ptr @pg_detoast_datum(ptr noundef %4)
  ret ptr %5
}

; Function Attrs: nounwind uwtable
define dso_local i64 @range_upper(ptr noundef %0) #0 {
  %2 = alloca i64, align 8
  %3 = alloca ptr, align 8
  %4 = alloca ptr, align 8
  %5 = alloca ptr, align 8
  %6 = alloca %struct.RangeBound, align 8
  %7 = alloca %struct.RangeBound, align 8
  %8 = alloca i8, align 1
  %9 = alloca i32, align 4
  store ptr %0, ptr %3, align 8
  call void @llvm.lifetime.start.p0(i64 8, ptr %4) #10
  %10 = load ptr, ptr %3, align 8
  %11 = getelementptr inbounds nuw %struct.FunctionCallInfoBaseData, ptr %10, i32 0, i32 6
  %12 = getelementptr inbounds [0 x %struct.NullableDatum], ptr %11, i64 0, i64 0
  %13 = getelementptr inbounds nuw %struct.NullableDatum, ptr %12, i32 0, i32 0
  %14 = load i64, ptr %13, align 8
  %15 = call ptr @DatumGetRangeTypeP(i64 noundef %14)
  store ptr %15, ptr %4, align 8
  call void @llvm.lifetime.start.p0(i64 8, ptr %5) #10
  call void @llvm.lifetime.start.p0(i64 16, ptr %6) #10
  call void @llvm.lifetime.start.p0(i64 16, ptr %7) #10
  call void @llvm.lifetime.start.p0(i64 1, ptr %8) #10
  %16 = load ptr, ptr %3, align 8
  %17 = load ptr, ptr %4, align 8
  %18 = getelementptr inbounds nuw %struct.RangeType, ptr %17, i32 0, i32 1
  %19 = load i32, ptr %18, align 4
  %20 = call ptr @range_get_typcache(ptr noundef %16, i32 noundef %19)
  store ptr %20, ptr %5, align 8
  %21 = load ptr, ptr %5, align 8
  %22 = load ptr, ptr %4, align 8
  call void @range_deserialize(ptr noundef %21, ptr noundef %22, ptr noundef %6, ptr noundef %7, ptr noundef %8)
  %23 = load i8, ptr %8, align 1, !range !7, !noundef !8
  %24 = trunc i8 %23 to i1
  br i1 %24, label %29, label %25

25:                                               ; preds = %1
  %26 = getelementptr inbounds nuw %struct.RangeBound, ptr %7, i32 0, i32 1
  %27 = load i8, ptr %26, align 8, !range !7, !noundef !8
  %28 = trunc i8 %27 to i1
  br i1 %28, label %29, label %35

29:                                               ; preds = %25, %1
  br label %30

30:                                               ; preds = %29
  %31 = load ptr, ptr %3, align 8
  %32 = getelementptr inbounds nuw %struct.FunctionCallInfoBaseData, ptr %31, i32 0, i32 4
  store i8 1, ptr %32, align 4
  store i64 0, ptr %2, align 8
  store i32 1, ptr %9, align 4
  br label %38

33:                                               ; No predecessors!
  br label %34

34:                                               ; preds = %33
  br label %35

35:                                               ; preds = %34, %25
  %36 = getelementptr inbounds nuw %struct.RangeBound, ptr %7, i32 0, i32 0
  %37 = load i64, ptr %36, align 8
  store i64 %37, ptr %2, align 8
  store i32 1, ptr %9, align 4
  br label %38

38:                                               ; preds = %35, %30
  call void @llvm.lifetime.end.p0(i64 1, ptr %8) #10
  call void @llvm.lifetime.end.p0(i64 16, ptr %7) #10
  call void @llvm.lifetime.end.p0(i64 16, ptr %6) #10
  call void @llvm.lifetime.end.p0(i64 8, ptr %5) #10
  call void @llvm.lifetime.end.p0(i64 8, ptr %4) #10
  %39 = load i64, ptr %2, align 8
  ret i64 %39
}