; Function Attrs: nounwind uwtable
define dso_local i64 @range_upper(ptr noundef captures(none) %0) local_unnamed_addr #0 {
  %2 = alloca %struct.RangeBound, align 8
  %3 = alloca %struct.RangeBound, align 8
  %4 = alloca i8, align 1
  %5 = getelementptr inbounds nuw i8, ptr %0, i64 32
  %6 = load i64, ptr %5, align 8
  %7 = inttoptr i64 %6 to ptr
  %8 = tail call ptr @pg_detoast_datum(ptr noundef %7) #14
  call void @llvm.lifetime.start.p0(i64 16, ptr nonnull %2) #14
  call void @llvm.lifetime.start.p0(i64 16, ptr nonnull %3) #14
  call void @llvm.lifetime.start.p0(i64 1, ptr nonnull %4) #14
  %9 = getelementptr inbounds nuw i8, ptr %8, i64 4
  %10 = load i32, ptr %9, align 4
  %11 = load ptr, ptr %0, align 8
  %12 = getelementptr inbounds nuw i8, ptr %11, i64 24
  %13 = load ptr, ptr %12, align 8
  %14 = icmp eq ptr %13, null
  br i1 %14, label %17, label %15

15:                                               ; preds = %1
  %16 = load i32, ptr %13, align 8
  %.not.i = icmp eq i32 %16, %10
  br i1 %.not.i, label %range_get_typcache.exit, label %17

17:                                               ; preds = %15, %1
  %18 = tail call ptr @lookup_type_cache(i32 noundef %10, i32 noundef 2048) #14
  %19 = getelementptr inbounds nuw i8, ptr %18, i64 280
  %20 = load ptr, ptr %19, align 8
  %21 = icmp eq ptr %20, null
  br i1 %21, label %22, label %25

22:                                               ; preds = %17
  %23 = tail call zeroext i1 @errstart_cold(i32 noundef 21, ptr noundef null) #16
  tail call void @llvm.assume(i1 %23)
  %24 = tail call i32 (ptr, ...) @errmsg_internal(ptr noundef nonnull @.str.12, i32 noundef %10) #14
  tail call void @errfinish(ptr noundef nonnull @.str.1, i32 noundef 1712, ptr noundef nonnull @__func__.range_get_typcache) #14
  unreachable

25:                                               ; preds = %17
  %26 = load ptr, ptr %0, align 8
  %27 = getelementptr inbounds nuw i8, ptr %26, i64 24
  store ptr %18, ptr %27, align 8
  br label %range_get_typcache.exit

range_get_typcache.exit:                          ; preds = %15, %25
  %.0.i = phi ptr [ %18, %25 ], [ %13, %15 ]
  call void @range_deserialize(ptr noundef nonnull %.0.i, ptr noundef nonnull %8, ptr noundef nonnull %2, ptr noundef nonnull %3, ptr noundef nonnull %4)
  %28 = load i8, ptr %4, align 1, !range !7, !noundef !8
  %29 = trunc nuw i8 %28 to i1
  br i1 %29, label %34, label %30

30:                                               ; preds = %range_get_typcache.exit
  %31 = getelementptr inbounds nuw i8, ptr %3, i64 8
  %32 = load i8, ptr %31, align 8, !range !7, !noundef !8
  %33 = trunc nuw i8 %32 to i1
  br i1 %33, label %34, label %36

34:                                               ; preds = %range_get_typcache.exit, %30
  %35 = getelementptr inbounds nuw i8, ptr %0, i64 28
  store i8 1, ptr %35, align 4
  br label %38

36:                                               ; preds = %30
  %37 = load i64, ptr %3, align 8
  br label %38

38:                                               ; preds = %36, %34
  %.0 = phi i64 [ 0, %34 ], [ %37, %36 ]
  call void @llvm.lifetime.end.p0(i64 1, ptr nonnull %4) #14
  call void @llvm.lifetime.end.p0(i64 16, ptr nonnull %3) #14
  call void @llvm.lifetime.end.p0(i64 16, ptr nonnull %2) #14
  ret i64 %.0
}